target datalayout = "e-m:e-p270:32:32-p271:32:32-p272:64:64-i64:64-i128:128-f80:128-n8:16:32:64-S128"
target triple = "x86_64-pc-linux-gnu"

%struct.DdNode = type { i32, i32, ptr, %union.anon, i64 }
%union.anon = type { %struct.DdChildren }
%struct.DdChildren = type { ptr, ptr }

; Function Attrs: nounwind uwtable
define internal double @ddCountPathAux(ptr noundef %0, ptr noundef %1) #0 {
  %3 = alloca double, align 8
  %4 = alloca ptr, align 8
  %5 = alloca ptr, align 8
  %6 = alloca ptr, align 8
  %7 = alloca ptr, align 8
  %8 = alloca double, align 8
  %9 = alloca ptr, align 8
  %10 = alloca double, align 8
  %11 = alloca double, align 8
  %12 = alloca ptr, align 8
  store ptr %0, ptr %4, align 8
  store ptr %1, ptr %5, align 8
  %13 = load ptr, ptr %4, align 8
  %14 = getelementptr inbounds %struct.DdNode, ptr %13, i32 0, i32 0
  %15 = load i32, ptr %14, align 8
  %16 = icmp eq i32 %15, 2147483647
  br i1 %16, label %17, label %18

17:                                               ; preds = %2
  store double 1.000000e+00, ptr %3, align 8
  br label %77

18:                                               ; preds = %2
  %19 = load ptr, ptr %5, align 8
  %20 = load ptr, ptr %4, align 8
  %21 = call i32 @st__lookup(ptr noundef %19, ptr noundef %20, ptr noundef %12)
  %22 = icmp ne i32 %21, 0
  br i1 %22, label %23, label %27

23:                                               ; preds = %18
  %24 = load ptr, ptr %12, align 8
  %25 = load double, ptr %24, align 8
  store double %25, ptr %8, align 8
  %26 = load double, ptr %8, align 8
  store double %26, ptr %3, align 8
  br label %77

27:                                               ; preds = %18
  %28 = load ptr, ptr %4, align 8
  %29 = getelementptr inbounds %struct.DdNode, ptr %28, i32 0, i32 3
  %30 = getelementptr inbounds %struct.DdChildren, ptr %29, i32 0, i32 0
  %31 = load ptr, ptr %30, align 8
  store ptr %31, ptr %6, align 8
  %32 = load ptr, ptr %4, align 8
  %33 = getelementptr inbounds %struct.DdNode, ptr %32, i32 0, i32 3
  %34 = getelementptr inbounds %struct.DdChildren, ptr %33, i32 0, i32 1
  %35 = load ptr, ptr %34, align 8
  store ptr %35, ptr %7, align 8
  %36 = load ptr, ptr %6, align 8
  %37 = load ptr, ptr %5, align 8
  %38 = call double @ddCountPathAux(ptr noundef %36, ptr noundef %37)
  store double %38, ptr %10, align 8
  %39 = load double, ptr %10, align 8
  %40 = fcmp oeq double %39, -1.000000e+00
  br i1 %40, label %41, label %42

41:                                               ; preds = %27
  store double -1.000000e+00, ptr %3, align 8
  br label %77

42:                                               ; preds = %27
  %43 = load ptr, ptr %7, align 8
  %44 = ptrtoint ptr %43 to i64
  %45 = and i64 %44, -2
  %46 = inttoptr i64 %45 to ptr
  %47 = load ptr, ptr %5, align 8
  %48 = call double @ddCountPathAux(ptr noundef %46, ptr noundef %47)
  store double %48, ptr %11, align 8
  %49 = load double, ptr %11, align 8
  %50 = fcmp oeq double %49, -1.000000e+00
  br i1 %50, label %51, label %52

51:                                               ; preds = %42
  store double -1.000000e+00, ptr %3, align 8
  br label %77

52:                                               ; preds = %42
  %53 = load double, ptr %10, align 8
  %54 = load double, ptr %11, align 8
  %55 = fadd double %53, %54
  store double %55, ptr %8, align 8
  %56 = call noalias ptr @malloc(i64 noundef 8) #5
  store ptr %56, ptr %9, align 8
  %57 = load ptr, ptr %9, align 8
  %58 = icmp eq ptr %57, null
  br i1 %58, label %59, label %60

59:                                               ; preds = %52
  store double -1.000000e+00, ptr %3, align 8
  br label %77

60:                                               ; preds = %52
  %61 = load double, ptr %8, align 8
  %62 = load ptr, ptr %9, align 8
  store double %61, ptr %62, align 8
  %63 = load ptr, ptr %5, align 8
  %64 = load ptr, ptr %4, align 8
  %65 = load ptr, ptr %9, align 8
  %66 = call i32 @st__add_direct(ptr noundef %63, ptr noundef %64, ptr noundef %65)
  %67 = icmp eq i32 %66, -10000
  br i1 %67, label %68, label %75

68:                                               ; preds = %60
  %69 = load ptr, ptr %9, align 8
  %70 = icmp ne ptr %69, null
  br i1 %70, label %71, label %73

71:                                               ; preds = %68
  %72 = load ptr, ptr %9, align 8
  call void @free(ptr noundef %72) #6
  store ptr null, ptr %9, align 8
  br label %74

73:                                               ; preds = %68
  br label %74

74:                                               ; preds = %73, %71
  store double -1.000000e+00, ptr %3, align 8
  br label %77

75:                                               ; preds = %60
  %76 = load double, ptr %8, align 8
  store double %76, ptr %3, align 8
  br label %77

77:                                               ; preds = %75, %74, %59, %51, %41, %23, %17
  %78 = load double, ptr %3, align 8
  ret double %78
}