; Function Attrs: nounwind uwtable
define internal fastcc double @ddCountPathAux(ptr noundef %0, ptr noundef nonnull %1) unnamed_addr #0 {
  %3 = alloca ptr, align 8
  %4 = load i32, ptr %0, align 8
  %5 = icmp eq i32 %4, 2147483647
  br i1 %5, label %32, label %6

6:                                                ; preds = %2
  %7 = call i32 @st__lookup(ptr noundef nonnull %1, ptr noundef nonnull %0, ptr noundef nonnull %3) #23
  %.not = icmp eq i32 %7, 0
  br i1 %.not, label %11, label %8

8:                                                ; preds = %6
  %9 = load ptr, ptr %3, align 8
  %10 = load double, ptr %9, align 8
  br label %32

11:                                               ; preds = %6
  %12 = getelementptr inbounds nuw i8, ptr %0, i64 16
  %13 = load ptr, ptr %12, align 8
  %14 = getelementptr inbounds nuw i8, ptr %0, i64 24
  %15 = load ptr, ptr %14, align 8
  %16 = call fastcc double @ddCountPathAux(ptr noundef %13, ptr noundef %1)
  %17 = fcmp oeq double %16, -1.000000e+00
  br i1 %17, label %32, label %18

18:                                               ; preds = %11
  %19 = ptrtoint ptr %15 to i64
  %20 = and i64 %19, -2
  %21 = inttoptr i64 %20 to ptr
  %22 = call fastcc double @ddCountPathAux(ptr noundef %21, ptr noundef %1)
  %23 = fcmp oeq double %22, -1.000000e+00
  br i1 %23, label %32, label %24

24:                                               ; preds = %18
  %25 = call noalias dereferenceable_or_null(8) ptr @malloc(i64 noundef 8) #22
  %26 = icmp eq ptr %25, null
  br i1 %26, label %32, label %27

27:                                               ; preds = %24
  %28 = fadd double %16, %22
  store double %28, ptr %25, align 8
  %29 = call i32 @st__add_direct(ptr noundef nonnull %1, ptr noundef nonnull %0, ptr noundef nonnull %25) #23
  %30 = icmp eq i32 %29, -10000
  br i1 %30, label %31, label %32

31:                                               ; preds = %27
  call void @free(ptr noundef nonnull %25) #23
  br label %32

32:                                               ; preds = %27, %24, %18, %11, %2, %31, %8
  %.0 = phi double [ %10, %8 ], [ -1.000000e+00, %31 ], [ 1.000000e+00, %2 ], [ -1.000000e+00, %11 ], [ -1.000000e+00, %18 ], [ -1.000000e+00, %24 ], [ %28, %27 ]
  ret double %.0
}